target datalayout = "e-m:e-p270:32:32-p271:32:32-p272:64:64-i64:64-i128:128-f80:128-n8:16:32:64-S128"
target triple = "x86_64-pc-linux-gnu"

%struct.BiquadsContext = type { ptr, i32, i32, i32, i32, i32, i32, i32, i32, double, double, double, double, ptr, %struct.AVChannelLayout, i32, i32, [3 x double], [3 x double], [3 x float], [3 x float], [3 x double], [3 x double], [3 x ptr], ptr, [2 x ptr], i32, i64, i32, ptr }
%struct.AVChannelLayout = type { i32, i32, %union.anon.1, ptr }
%union.anon.1 = type { i64 }

; Function Attrs: nounwind uwtable
define internal void @biquad_svf_s16(ptr noundef %0, ptr noundef %1, ptr noundef %2, i32 noundef %3, ptr noundef %4, ptr noundef %5, i32 noundef %6) #1 {
  %8 = alloca ptr, align 8
  %9 = alloca ptr, align 8
  %10 = alloca ptr, align 8
  %11 = alloca i32, align 4
  %12 = alloca ptr, align 8
  %13 = alloca ptr, align 8
  %14 = alloca i32, align 4
  %15 = alloca ptr, align 8
  %16 = alloca ptr, align 8
  %17 = alloca ptr, align 8
  %18 = alloca ptr, align 8
  %19 = alloca ptr, align 8
  %20 = alloca float, align 4
  %21 = alloca float, align 4
  %22 = alloca float, align 4
  %23 = alloca float, align 4
  %24 = alloca float, align 4
  %25 = alloca float, align 4
  %26 = alloca float, align 4
  %27 = alloca float, align 4
  %28 = alloca float, align 4
  %29 = alloca float, align 4
  %30 = alloca float, align 4
  %31 = alloca float, align 4
  %32 = alloca float, align 4
  %33 = alloca i32, align 4
  store ptr %0, ptr %8, align 8, !tbaa !22
  store ptr %1, ptr %9, align 8, !tbaa !36
  store ptr %2, ptr %10, align 8, !tbaa !36
  store i32 %3, ptr %11, align 4, !tbaa !31
  store ptr %4, ptr %12, align 8, !tbaa !36
  store ptr %5, ptr %13, align 8, !tbaa !82
  store i32 %6, ptr %14, align 4, !tbaa !31
  call void @llvm.lifetime.start.p0(i64 8, ptr %15) #11
  %34 = load ptr, ptr %9, align 8, !tbaa !36
  store ptr %34, ptr %15, align 8, !tbaa !83
  call void @llvm.lifetime.start.p0(i64 8, ptr %16) #11
  %35 = load ptr, ptr %10, align 8, !tbaa !36
  store ptr %35, ptr %16, align 8, !tbaa !83
  call void @llvm.lifetime.start.p0(i64 8, ptr %17) #11
  %36 = load ptr, ptr %12, align 8, !tbaa !36
  store ptr %36, ptr %17, align 8, !tbaa !85
  call void @llvm.lifetime.start.p0(i64 8, ptr %18) #11
  %37 = load ptr, ptr %8, align 8, !tbaa !22
  %38 = getelementptr inbounds nuw %struct.BiquadsContext, ptr %37, i32 0, i32 19
  %39 = getelementptr inbounds [3 x float], ptr %38, i64 0, i64 0
  store ptr %39, ptr %18, align 8, !tbaa !85
  call void @llvm.lifetime.start.p0(i64 8, ptr %19) #11
  %40 = load ptr, ptr %8, align 8, !tbaa !22
  %41 = getelementptr inbounds nuw %struct.BiquadsContext, ptr %40, i32 0, i32 20
  %42 = getelementptr inbounds [3 x float], ptr %41, i64 0, i64 0
  store ptr %42, ptr %19, align 8, !tbaa !85
  call void @llvm.lifetime.start.p0(i64 4, ptr %20) #11
  %43 = load ptr, ptr %18, align 8, !tbaa !85
  %44 = getelementptr inbounds float, ptr %43, i64 1
  %45 = load float, ptr %44, align 4, !tbaa !80
  store float %45, ptr %20, align 4, !tbaa !80
  call void @llvm.lifetime.start.p0(i64 4, ptr %21) #11
  %46 = load ptr, ptr %18, align 8, !tbaa !85
  %47 = getelementptr inbounds float, ptr %46, i64 2
  %48 = load float, ptr %47, align 4, !tbaa !80
  store float %48, ptr %21, align 4, !tbaa !80
  call void @llvm.lifetime.start.p0(i64 4, ptr %22) #11
  %49 = load ptr, ptr %19, align 8, !tbaa !85
  %50 = getelementptr inbounds float, ptr %49, i64 0
  %51 = load float, ptr %50, align 4, !tbaa !80
  store float %51, ptr %22, align 4, !tbaa !80
  call void @llvm.lifetime.start.p0(i64 4, ptr %23) #11
  %52 = load ptr, ptr %19, align 8, !tbaa !85
  %53 = getelementptr inbounds float, ptr %52, i64 1
  %54 = load float, ptr %53, align 4, !tbaa !80
  store float %54, ptr %23, align 4, !tbaa !80
  call void @llvm.lifetime.start.p0(i64 4, ptr %24) #11
  %55 = load ptr, ptr %19, align 8, !tbaa !85
  %56 = getelementptr inbounds float, ptr %55, i64 2
  %57 = load float, ptr %56, align 4, !tbaa !80
  store float %57, ptr %24, align 4, !tbaa !80
  call void @llvm.lifetime.start.p0(i64 4, ptr %25) #11
  %58 = load ptr, ptr %17, align 8, !tbaa !85
  %59 = getelementptr inbounds float, ptr %58, i64 0
  %60 = load float, ptr %59, align 4, !tbaa !80
  store float %60, ptr %25, align 4, !tbaa !80
  call void @llvm.lifetime.start.p0(i64 4, ptr %26) #11
  %61 = load ptr, ptr %17, align 8, !tbaa !85
  %62 = getelementptr inbounds float, ptr %61, i64 1
  %63 = load float, ptr %62, align 4, !tbaa !80
  store float %63, ptr %26, align 4, !tbaa !80
  call void @llvm.lifetime.start.p0(i64 4, ptr %27) #11
  %64 = load ptr, ptr %8, align 8, !tbaa !22
  %65 = getelementptr inbounds nuw %struct.BiquadsContext, ptr %64, i32 0, i32 12
  %66 = load double, ptr %65, align 8, !tbaa !87
  %67 = fptrunc nsz double %66 to float
  store float %67, ptr %27, align 4, !tbaa !80
  call void @llvm.lifetime.start.p0(i64 4, ptr %28) #11
  %68 = load float, ptr %27, align 4, !tbaa !80
  %69 = fpext nsz float %68 to double
  %70 = fsub nsz double 1.000000e+00, %69
  %71 = fptrunc nsz double %70 to float
  store float %71, ptr %28, align 4, !tbaa !80
  call void @llvm.lifetime.start.p0(i64 4, ptr %29) #11
  call void @llvm.lifetime.start.p0(i64 4, ptr %30) #11
  call void @llvm.lifetime.start.p0(i64 4, ptr %31) #11
  call void @llvm.lifetime.start.p0(i64 4, ptr %32) #11
  call void @llvm.lifetime.start.p0(i64 4, ptr %33) #11
  store i32 0, ptr %33, align 4, !tbaa !31
  br label %72

72:                                               ; preds = %151, %7
  %73 = load i32, ptr %33, align 4, !tbaa !31
  %74 = load i32, ptr %11, align 4, !tbaa !31
  %75 = icmp slt i32 %73, %74
  br i1 %75, label %77, label %76

76:                                               ; preds = %72
  call void @llvm.lifetime.end.p0(i64 4, ptr %33) #11
  br label %154

77:                                               ; preds = %72
  %78 = load ptr, ptr %15, align 8, !tbaa !83
  %79 = load i32, ptr %33, align 4, !tbaa !31
  %80 = sext i32 %79 to i64
  %81 = getelementptr inbounds i16, ptr %78, i64 %80
  %82 = load i16, ptr %81, align 2, !tbaa !88
  %83 = sitofp i16 %82 to float
  store float %83, ptr %29, align 4, !tbaa !80
  %84 = load float, ptr %24, align 4, !tbaa !80
  %85 = load float, ptr %29, align 4, !tbaa !80
  %86 = load float, ptr %25, align 4, !tbaa !80
  %87 = call nsz float @llvm.fmuladd.f32(float %84, float %85, float %86)
  store float %87, ptr %30, align 4, !tbaa !80
  %88 = load float, ptr %22, align 4, !tbaa !80
  %89 = load float, ptr %29, align 4, !tbaa !80
  %90 = load float, ptr %20, align 4, !tbaa !80
  %91 = load float, ptr %25, align 4, !tbaa !80
  %92 = fmul nsz float %90, %91
  %93 = call nsz float @llvm.fmuladd.f32(float %88, float %89, float %92)
  %94 = load float, ptr %26, align 4, !tbaa !80
  %95 = fadd nsz float %93, %94
  store float %95, ptr %31, align 4, !tbaa !80
  %96 = load float, ptr %23, align 4, !tbaa !80
  %97 = load float, ptr %29, align 4, !tbaa !80
  %98 = load float, ptr %21, align 4, !tbaa !80
  %99 = load float, ptr %25, align 4, !tbaa !80
  %100 = fmul nsz float %98, %99
  %101 = call nsz float @llvm.fmuladd.f32(float %96, float %97, float %100)
  store float %101, ptr %32, align 4, !tbaa !80
  %102 = load float, ptr %31, align 4, !tbaa !80
  store float %102, ptr %25, align 4, !tbaa !80
  %103 = load float, ptr %32, align 4, !tbaa !80
  store float %103, ptr %26, align 4, !tbaa !80
  %104 = load float, ptr %30, align 4, !tbaa !80
  %105 = load float, ptr %27, align 4, !tbaa !80
  %106 = load float, ptr %29, align 4, !tbaa !80
  %107 = load float, ptr %28, align 4, !tbaa !80
  %108 = fmul nsz float %106, %107
  %109 = call nsz float @llvm.fmuladd.f32(float %104, float %105, float %108)
  store float %109, ptr %30, align 4, !tbaa !80
  %110 = load i32, ptr %14, align 4, !tbaa !31
  %111 = icmp ne i32 %110, 0
  br i1 %111, label %112, label %119

112:                                              ; preds = %77
  %113 = load float, ptr %29, align 4, !tbaa !80
  %114 = fptosi float %113 to i16
  %115 = load ptr, ptr %16, align 8, !tbaa !83
  %116 = load i32, ptr %33, align 4, !tbaa !31
  %117 = sext i32 %116 to i64
  %118 = getelementptr inbounds i16, ptr %115, i64 %117
  store i16 %114, ptr %118, align 2, !tbaa !88
  br label %150

119:                                              ; preds = %77
  %120 = load float, ptr %30, align 4, !tbaa !80
  %121 = fcmp nsz olt float %120, -3.276800e+04
  br i1 %121, label %122, label %130

122:                                              ; preds = %119
  %123 = load ptr, ptr %13, align 8, !tbaa !82
  %124 = load i32, ptr %123, align 4, !tbaa !31
  %125 = add nsw i32 %124, 1
  store i32 %125, ptr %123, align 4, !tbaa !31
  %126 = load ptr, ptr %16, align 8, !tbaa !83
  %127 = load i32, ptr %33, align 4, !tbaa !31
  %128 = sext i32 %127 to i64
  %129 = getelementptr inbounds i16, ptr %126, i64 %128
  store i16 -32768, ptr %129, align 2, !tbaa !88
  br label %149

130:                                              ; preds = %119
  %131 = load float, ptr %30, align 4, !tbaa !80
  %132 = fcmp nsz ogt float %131, 3.276700e+04
  br i1 %132, label %133, label %141

133:                                              ; preds = %130
  %134 = load ptr, ptr %13, align 8, !tbaa !82
  %135 = load i32, ptr %134, align 4, !tbaa !31
  %136 = add nsw i32 %135, 1
  store i32 %136, ptr %134, align 4, !tbaa !31
  %137 = load ptr, ptr %16, align 8, !tbaa !83
  %138 = load i32, ptr %33, align 4, !tbaa !31
  %139 = sext i32 %138 to i64
  %140 = getelementptr inbounds i16, ptr %137, i64 %139
  store i16 32767, ptr %140, align 2, !tbaa !88
  br label %148

141:                                              ; preds = %130
  %142 = load float, ptr %30, align 4, !tbaa !80
  %143 = fptosi float %142 to i16
  %144 = load ptr, ptr %16, align 8, !tbaa !83
  %145 = load i32, ptr %33, align 4, !tbaa !31
  %146 = sext i32 %145 to i64
  %147 = getelementptr inbounds i16, ptr %144, i64 %146
  store i16 %143, ptr %147, align 2, !tbaa !88
  br label %148

148:                                              ; preds = %141, %133
  br label %149

149:                                              ; preds = %148, %122
  br label %150

150:                                              ; preds = %149, %112
  br label %151

151:                                              ; preds = %150
  %152 = load i32, ptr %33, align 4, !tbaa !31
  %153 = add nsw i32 %152, 1
  store i32 %153, ptr %33, align 4, !tbaa !31
  br label %72, !llvm.loop !111

154:                                              ; preds = %76
  %155 = load float, ptr %25, align 4, !tbaa !80
  %156 = load ptr, ptr %17, align 8, !tbaa !85
  %157 = getelementptr inbounds float, ptr %156, i64 0
  store float %155, ptr %157, align 4, !tbaa !80
  %158 = load float, ptr %26, align 4, !tbaa !80
  %159 = load ptr, ptr %17, align 8, !tbaa !85
  %160 = getelementptr inbounds float, ptr %159, i64 1
  store float %158, ptr %160, align 4, !tbaa !80
  call void @llvm.lifetime.end.p0(i64 4, ptr %32) #11
  call void @llvm.lifetime.end.p0(i64 4, ptr %31) #11
  call void @llvm.lifetime.end.p0(i64 4, ptr %30) #11
  call void @llvm.lifetime.end.p0(i64 4, ptr %29) #11
  call void @llvm.lifetime.end.p0(i64 4, ptr %28) #11
  call void @llvm.lifetime.end.p0(i64 4, ptr %27) #11
  call void @llvm.lifetime.end.p0(i64 4, ptr %26) #11
  call void @llvm.lifetime.end.p0(i64 4, ptr %25) #11
  call void @llvm.lifetime.end.p0(i64 4, ptr %24) #11
  call void @llvm.lifetime.end.p0(i64 4, ptr %23) #11
  call void @llvm.lifetime.end.p0(i64 4, ptr %22) #11
  call void @llvm.lifetime.end.p0(i64 4, ptr %21) #11
  call void @llvm.lifetime.end.p0(i64 4, ptr %20) #11
  call void @llvm.lifetime.end.p0(i64 8, ptr %19) #11
  call void @llvm.lifetime.end.p0(i64 8, ptr %18) #11
  call void @llvm.lifetime.end.p0(i64 8, ptr %17) #11
  call void @llvm.lifetime.end.p0(i64 8, ptr %16) #11
  call void @llvm.lifetime.end.p0(i64 8, ptr %15) #11
  ret void
}