; Function Attrs: nofree norecurse nosync nounwind memory(argmem: readwrite) uwtable
define internal void @biquad_svf_s16(ptr noundef readonly captures(none) %0, ptr noundef readonly captures(none) %1, ptr noundef writeonly captures(none) %2, i32 noundef %3, ptr noundef captures(none) %4, ptr noundef captures(none) %5, i32 noundef %6) #7 {
  %8 = getelementptr inbounds nuw i8, ptr %0, i64 172
  %9 = getelementptr inbounds nuw i8, ptr %0, i64 164
  %10 = load float, ptr %9, align 4, !tbaa !73
  %11 = getelementptr inbounds nuw i8, ptr %0, i64 168
  %12 = load float, ptr %11, align 4, !tbaa !73
  %13 = load float, ptr %8, align 4, !tbaa !73
  %14 = getelementptr inbounds nuw i8, ptr %0, i64 176
  %15 = load float, ptr %14, align 4, !tbaa !73
  %16 = getelementptr inbounds nuw i8, ptr %0, i64 180
  %17 = load float, ptr %16, align 4, !tbaa !73
  %18 = load float, ptr %4, align 4, !tbaa !73
  %19 = getelementptr inbounds nuw i8, ptr %4, i64 4
  %20 = load float, ptr %19, align 4, !tbaa !73
  %21 = getelementptr inbounds nuw i8, ptr %0, i64 64
  %22 = load double, ptr %21, align 8, !tbaa !75
  %23 = fptrunc nsz double %22 to float
  %24 = fsub nsz float 1.000000e+00, %23
  %25 = icmp sgt i32 %3, 0
  br i1 %25, label %.lr.ph, label %._crit_edge

.lr.ph:                                           ; preds = %7
  %.not = icmp eq i32 %6, 0
  %wide.trip.count71 = zext nneg i32 %3 to i64
  br i1 %.not, label %.lr.ph.split.us, label %.lr.ph.split

.lr.ph.split.us:                                  ; preds = %.lr.ph, %48
  %indvars.iv68 = phi i64 [ %indvars.iv.next69, %48 ], [ 0, %.lr.ph ]
  %.05559.us = phi float [ %32, %48 ], [ %18, %.lr.ph ]
  %.05658.us = phi float [ %34, %48 ], [ %20, %.lr.ph ]
  %26 = getelementptr inbounds nuw i16, ptr %1, i64 %indvars.iv68
  %27 = load i16, ptr %26, align 2, !tbaa !76
  %28 = sitofp i16 %27 to float
  %29 = tail call nsz float @llvm.fmuladd.f32(float %17, float %28, float %.05559.us)
  %30 = fmul nsz float %10, %.05559.us
  %31 = tail call nsz float @llvm.fmuladd.f32(float %13, float %28, float %30)
  %32 = fadd nsz float %.05658.us, %31
  %33 = fmul nsz float %12, %.05559.us
  %34 = tail call nsz float @llvm.fmuladd.f32(float %15, float %28, float %33)
  %35 = fmul nsz float %24, %28
  %36 = tail call nsz float @llvm.fmuladd.f32(float %29, float %23, float %35)
  %37 = fcmp nsz olt float %36, -3.276800e+04
  br i1 %37, label %45, label %38

38:                                               ; preds = %.lr.ph.split.us
  %39 = fcmp nsz ogt float %36, 3.276700e+04
  br i1 %39, label %42, label %40

40:                                               ; preds = %38
  %41 = fptosi float %36 to i16
  br label %48

42:                                               ; preds = %38
  %43 = load i32, ptr %5, align 4, !tbaa !30
  %44 = add nsw i32 %43, 1
  store i32 %44, ptr %5, align 4, !tbaa !30
  br label %48

45:                                               ; preds = %.lr.ph.split.us
  %46 = load i32, ptr %5, align 4, !tbaa !30
  %47 = add nsw i32 %46, 1
  store i32 %47, ptr %5, align 4, !tbaa !30
  br label %48

48:                                               ; preds = %45, %42, %40
  %.sink = phi i16 [ -32768, %45 ], [ 32767, %42 ], [ %41, %40 ]
  %49 = getelementptr inbounds nuw i16, ptr %2, i64 %indvars.iv68
  store i16 %.sink, ptr %49, align 2, !tbaa !76
  %indvars.iv.next69 = add nuw nsw i64 %indvars.iv68, 1
  %exitcond72.not = icmp eq i64 %indvars.iv.next69, %wide.trip.count71
  br i1 %exitcond72.not, label %._crit_edge, label %.lr.ph.split.us, !llvm.loop !98

._crit_edge:                                      ; preds = %.lr.ph.split, %48, %7
  %.056.lcssa = phi float [ %20, %7 ], [ %34, %48 ], [ %57, %.lr.ph.split ]
  %.055.lcssa = phi float [ %18, %7 ], [ %32, %48 ], [ %55, %.lr.ph.split ]
  store float %.055.lcssa, ptr %4, align 4, !tbaa !73
  store float %.056.lcssa, ptr %19, align 4, !tbaa !73
  ret void

.lr.ph.split:                                     ; preds = %.lr.ph, %.lr.ph.split
  %indvars.iv = phi i64 [ %indvars.iv.next, %.lr.ph.split ], [ 0, %.lr.ph ]
  %.05559 = phi float [ %55, %.lr.ph.split ], [ %18, %.lr.ph ]
  %.05658 = phi float [ %57, %.lr.ph.split ], [ %20, %.lr.ph ]
  %50 = getelementptr inbounds nuw i16, ptr %1, i64 %indvars.iv
  %51 = load i16, ptr %50, align 2, !tbaa !76
  %52 = sitofp i16 %51 to float
  %53 = fmul nsz float %10, %.05559
  %54 = tail call nsz float @llvm.fmuladd.f32(float %13, float %52, float %53)
  %55 = fadd nsz float %.05658, %54
  %56 = fmul nsz float %12, %.05559
  %57 = tail call nsz float @llvm.fmuladd.f32(float %15, float %52, float %56)
  %58 = getelementptr inbounds nuw i16, ptr %2, i64 %indvars.iv
  store i16 %51, ptr %58, align 2, !tbaa !76
  %indvars.iv.next = add nuw nsw i64 %indvars.iv, 1
  %exitcond.not = icmp eq i64 %indvars.iv.next, %wide.trip.count71
  br i1 %exitcond.not, label %._crit_edge, label %.lr.ph.split, !llvm.loop !98
}